target datalayout = "e-m:e-p270:32:32-p271:32:32-p272:64:64-i64:64-i128:128-f80:128-n8:16:32:64-S128"
target triple = "x86_64-pc-linux-gnu"

%struct.AVFilterContext = type { ptr, ptr, ptr, ptr, ptr, i32, ptr, ptr, i32, ptr, ptr, i32, i32, ptr, ptr, ptr, ptr, i32, ptr, i32, i32 }
%struct.CropContext = type { ptr, i32, i32, i32, i32, %struct.AVRational, i32, i32, [4 x i32], i32, i32, ptr, ptr, ptr, ptr, ptr, ptr, [17 x double] }
%struct.AVRational = type { i32, i32 }
%struct.AVFilterLink = type { ptr, ptr, ptr, ptr, i32, i32, i32, i32, %struct.AVRational, i32, i32, i32, %struct.AVChannelLayout, %struct.AVRational, ptr, i32, %struct.AVFilterFormatsConfig, %struct.AVFilterFormatsConfig }
%struct.AVChannelLayout = type { i32, i32, %union.anon.1, ptr }
%union.anon.1 = type { i64 }
%struct.AVFilterFormatsConfig = type { ptr, ptr, ptr, ptr, ptr }
%struct.AVPixFmtDescriptor = type { ptr, i8, i8, i8, i64, [4 x %struct.AVComponentDescriptor], ptr }
%struct.AVComponentDescriptor = type { i32, i32, i32, i32, i32 }

@.str.12 = private unnamed_addr constant [6 x i8] c"out_w\00", align 1
@.str.14 = private unnamed_addr constant [6 x i8] c"out_h\00", align 1
@.str.21 = private unnamed_addr constant [2 x i8] c"x\00", align 1
@.str.22 = private unnamed_addr constant [2 x i8] c"y\00", align 1
@.str.27 = private unnamed_addr constant [2 x i8] c"w\00", align 1
@.str.29 = private unnamed_addr constant [2 x i8] c"h\00", align 1

; Function Attrs: nounwind uwtable
define internal i32 @config_output(ptr noundef %0) #1 {
  %2 = alloca ptr, align 8
  %3 = alloca ptr, align 8
  %4 = alloca ptr, align 8
  store ptr %0, ptr %2, align 8, !tbaa !38
  call void @llvm.lifetime.start.p0(i64 8, ptr %3) #9
  %5 = load ptr, ptr %2, align 8, !tbaa !38
  %6 = getelementptr inbounds nuw %struct.AVFilterLink, ptr %5, i32 0, i32 0
  %7 = load ptr, ptr %6, align 8, !tbaa !96
  %8 = getelementptr inbounds nuw %struct.AVFilterContext, ptr %7, i32 0, i32 9
  %9 = load ptr, ptr %8, align 8, !tbaa !9
  store ptr %9, ptr %3, align 8, !tbaa !22
  call void @llvm.lifetime.start.p0(i64 8, ptr %4) #9
  %10 = load ptr, ptr %2, align 8, !tbaa !38
  %11 = getelementptr inbounds nuw %struct.AVFilterLink, ptr %10, i32 0, i32 5
  %12 = load i32, ptr %11, align 4, !tbaa !52
  %13 = call ptr @av_pix_fmt_desc_get(i32 noundef %12)
  store ptr %13, ptr %4, align 8, !tbaa !53
  %14 = load ptr, ptr %4, align 8, !tbaa !53
  %15 = getelementptr inbounds nuw %struct.AVPixFmtDescriptor, ptr %14, i32 0, i32 4
  %16 = load i64, ptr %15, align 8, !tbaa !70
  %17 = and i64 %16, 8
  %18 = icmp ne i64 %17, 0
  br i1 %18, label %19, label %20

19:                                               ; preds = %1
  br label %31

20:                                               ; preds = %1
  %21 = load ptr, ptr %3, align 8, !tbaa !22
  %22 = getelementptr inbounds nuw %struct.CropContext, ptr %21, i32 0, i32 3
  %23 = load i32, ptr %22, align 8, !tbaa !35
  %24 = load ptr, ptr %2, align 8, !tbaa !38
  %25 = getelementptr inbounds nuw %struct.AVFilterLink, ptr %24, i32 0, i32 6
  store i32 %23, ptr %25, align 8, !tbaa !65
  %26 = load ptr, ptr %3, align 8, !tbaa !22
  %27 = getelementptr inbounds nuw %struct.CropContext, ptr %26, i32 0, i32 4
  %28 = load i32, ptr %27, align 4, !tbaa !36
  %29 = load ptr, ptr %2, align 8, !tbaa !38
  %30 = getelementptr inbounds nuw %struct.AVFilterLink, ptr %29, i32 0, i32 7
  store i32 %28, ptr %30, align 4, !tbaa !66
  br label %31

31:                                               ; preds = %20, %19
  %32 = load ptr, ptr %2, align 8, !tbaa !38
  %33 = getelementptr inbounds nuw %struct.AVFilterLink, ptr %32, i32 0, i32 8
  %34 = load ptr, ptr %3, align 8, !tbaa !22
  %35 = getelementptr inbounds nuw %struct.CropContext, ptr %34, i32 0, i32 5
  call void @llvm.memcpy.p0.p0.i64(ptr align 8 %33, ptr align 8 %35, i64 8, i1 false), !tbaa.struct !90
  call void @llvm.lifetime.end.p0(i64 8, ptr %4) #9
  call void @llvm.lifetime.end.p0(i64 8, ptr %3) #9
  ret i32 0
}

; Function Attrs: nounwind uwtable
define internal i32 @process_command(ptr noundef %0, ptr noundef %1, ptr noundef %2, ptr noundef %3, i32 noundef %4, i32 noundef %5) #1 {
  %7 = alloca i32, align 4
  %8 = alloca ptr, align 8
  %9 = alloca ptr, align 8
  %10 = alloca ptr, align 8
  %11 = alloca ptr, align 8
  %12 = alloca i32, align 4
  %13 = alloca i32, align 4
  %14 = alloca ptr, align 8
  %15 = alloca i32, align 4
  %16 = alloca i32, align 4
  %17 = alloca i32, align 4
  %18 = alloca i32, align 4
  %19 = alloca i32, align 4
  %20 = alloca ptr, align 8
  %21 = alloca ptr, align 8
  %22 = alloca i32, align 4
  store ptr %0, ptr %8, align 8, !tbaa !4
  store ptr %1, ptr %9, align 8, !tbaa !32
  store ptr %2, ptr %10, align 8, !tbaa !32
  store ptr %3, ptr %11, align 8, !tbaa !32
  store i32 %4, ptr %12, align 4, !tbaa !31
  store i32 %5, ptr %13, align 4, !tbaa !31
  call void @llvm.lifetime.start.p0(i64 8, ptr %14) #9
  %23 = load ptr, ptr %8, align 8, !tbaa !4
  %24 = getelementptr inbounds nuw %struct.AVFilterContext, ptr %23, i32 0, i32 9
  %25 = load ptr, ptr %24, align 8, !tbaa !9
  store ptr %25, ptr %14, align 8, !tbaa !22
  call void @llvm.lifetime.start.p0(i64 4, ptr %15) #9
  %26 = load ptr, ptr %9, align 8, !tbaa !32
  %27 = call i32 @strcmp(ptr noundef %26, ptr noundef @.str.12) #10
  %28 = icmp ne i32 %27, 0
  br i1 %28, label %29, label %49

29:                                               ; preds = %6
  %30 = load ptr, ptr %9, align 8, !tbaa !32
  %31 = call i32 @strcmp(ptr noundef %30, ptr noundef @.str.27) #10
  %32 = icmp ne i32 %31, 0
  br i1 %32, label %33, label %49

33:                                               ; preds = %29
  %34 = load ptr, ptr %9, align 8, !tbaa !32
  %35 = call i32 @strcmp(ptr noundef %34, ptr noundef @.str.14) #10
  %36 = icmp ne i32 %35, 0
  br i1 %36, label %37, label %49

37:                                               ; preds = %33
  %38 = load ptr, ptr %9, align 8, !tbaa !32
  %39 = call i32 @strcmp(ptr noundef %38, ptr noundef @.str.29) #10
  %40 = icmp ne i32 %39, 0
  br i1 %40, label %41, label %49

41:                                               ; preds = %37
  %42 = load ptr, ptr %9, align 8, !tbaa !32
  %43 = call i32 @strcmp(ptr noundef %42, ptr noundef @.str.21) #10
  %44 = icmp ne i32 %43, 0
  br i1 %44, label %45, label %49

45:                                               ; preds = %41
  %46 = load ptr, ptr %9, align 8, !tbaa !32
  %47 = call i32 @strcmp(ptr noundef %46, ptr noundef @.str.22) #10
  %48 = icmp ne i32 %47, 0
  br i1 %48, label %99, label %49

49:                                               ; preds = %45, %41, %37, %33, %29, %6
  call void @llvm.lifetime.start.p0(i64 4, ptr %16) #9
  %50 = load ptr, ptr %14, align 8, !tbaa !22
  %51 = getelementptr inbounds nuw %struct.CropContext, ptr %50, i32 0, i32 1
  %52 = load i32, ptr %51, align 8, !tbaa !33
  store i32 %52, ptr %16, align 4, !tbaa !31
  call void @llvm.lifetime.start.p0(i64 4, ptr %17) #9
  %53 = load ptr, ptr %14, align 8, !tbaa !22
  %54 = getelementptr inbounds nuw %struct.CropContext, ptr %53, i32 0, i32 2
  %55 = load i32, ptr %54, align 4, !tbaa !34
  store i32 %55, ptr %17, align 4, !tbaa !31
  call void @llvm.lifetime.start.p0(i64 4, ptr %18) #9
  %56 = load ptr, ptr %14, align 8, !tbaa !22
  %57 = getelementptr inbounds nuw %struct.CropContext, ptr %56, i32 0, i32 3
  %58 = load i32, ptr %57, align 8, !tbaa !35
  store i32 %58, ptr %18, align 4, !tbaa !31
  call void @llvm.lifetime.start.p0(i64 4, ptr %19) #9
  %59 = load ptr, ptr %14, align 8, !tbaa !22
  %60 = getelementptr inbounds nuw %struct.CropContext, ptr %59, i32 0, i32 4
  %61 = load i32, ptr %60, align 4, !tbaa !36
  store i32 %61, ptr %19, align 4, !tbaa !31
  call void @llvm.lifetime.start.p0(i64 8, ptr %20) #9
  %62 = load ptr, ptr %8, align 8, !tbaa !4
  %63 = getelementptr inbounds nuw %struct.AVFilterContext, ptr %62, i32 0, i32 7
  %64 = load ptr, ptr %63, align 8, !tbaa !37
  %65 = getelementptr inbounds ptr, ptr %64, i64 0
  %66 = load ptr, ptr %65, align 8, !tbaa !38
  store ptr %66, ptr %20, align 8, !tbaa !38
  call void @llvm.lifetime.start.p0(i64 8, ptr %21) #9
  %67 = load ptr, ptr %8, align 8, !tbaa !4
  %68 = getelementptr inbounds nuw %struct.AVFilterContext, ptr %67, i32 0, i32 4
  %69 = load ptr, ptr %68, align 8, !tbaa !40
  %70 = getelementptr inbounds ptr, ptr %69, i64 0
  %71 = load ptr, ptr %70, align 8, !tbaa !38
  store ptr %71, ptr %21, align 8, !tbaa !38
  %72 = load ptr, ptr %14, align 8, !tbaa !22
  %73 = load ptr, ptr %9, align 8, !tbaa !32
  %74 = load ptr, ptr %10, align 8, !tbaa !32
  %75 = call i32 @av_opt_set(ptr noundef %72, ptr noundef %73, ptr noundef %74, i32 noundef 0)
  %76 = load ptr, ptr %21, align 8, !tbaa !38
  %77 = call i32 @config_input(ptr noundef %76)
  store i32 %77, ptr %15, align 4, !tbaa !31
  %78 = icmp slt i32 %77, 0
  br i1 %78, label %79, label %93

79:                                               ; preds = %49
  %80 = load i32, ptr %16, align 4, !tbaa !31
  %81 = load ptr, ptr %14, align 8, !tbaa !22
  %82 = getelementptr inbounds nuw %struct.CropContext, ptr %81, i32 0, i32 1
  store i32 %80, ptr %82, align 8, !tbaa !33
  %83 = load i32, ptr %17, align 4, !tbaa !31
  %84 = load ptr, ptr %14, align 8, !tbaa !22
  %85 = getelementptr inbounds nuw %struct.CropContext, ptr %84, i32 0, i32 2
  store i32 %83, ptr %85, align 4, !tbaa !34
  %86 = load i32, ptr %18, align 4, !tbaa !31
  %87 = load ptr, ptr %14, align 8, !tbaa !22
  %88 = getelementptr inbounds nuw %struct.CropContext, ptr %87, i32 0, i32 3
  store i32 %86, ptr %88, align 8, !tbaa !35
  %89 = load i32, ptr %19, align 4, !tbaa !31
  %90 = load ptr, ptr %14, align 8, !tbaa !22
  %91 = getelementptr inbounds nuw %struct.CropContext, ptr %90, i32 0, i32 4
  store i32 %89, ptr %91, align 4, !tbaa !36
  %92 = load i32, ptr %15, align 4, !tbaa !31
  store i32 %92, ptr %7, align 4
  store i32 1, ptr %22, align 4
  br label %96

93:                                               ; preds = %49
  %94 = load ptr, ptr %20, align 8, !tbaa !38
  %95 = call i32 @config_output(ptr noundef %94)
  store i32 %95, ptr %15, align 4, !tbaa !31
  store i32 0, ptr %22, align 4
  br label %96

96:                                               ; preds = %93, %79
  call void @llvm.lifetime.end.p0(i64 8, ptr %21) #9
  call void @llvm.lifetime.end.p0(i64 8, ptr %20) #9
  call void @llvm.lifetime.end.p0(i64 4, ptr %19) #9
  call void @llvm.lifetime.end.p0(i64 4, ptr %18) #9
  call void @llvm.lifetime.end.p0(i64 4, ptr %17) #9
  call void @llvm.lifetime.end.p0(i64 4, ptr %16) #9
  %97 = load i32, ptr %22, align 4
  switch i32 %97, label %102 [
    i32 0, label %98
  ]

98:                                               ; preds = %96
  br label %100

99:                                               ; preds = %45
  store i32 -38, ptr %15, align 4, !tbaa !31
  br label %100

100:                                              ; preds = %99, %98
  %101 = load i32, ptr %15, align 4, !tbaa !31
  store i32 %101, ptr %7, align 4
  store i32 1, ptr %22, align 4
  br label %102

102:                                              ; preds = %100, %96
  call void @llvm.lifetime.end.p0(i64 4, ptr %15) #9
  call void @llvm.lifetime.end.p0(i64 8, ptr %14) #9
  %103 = load i32, ptr %7, align 4
  ret i32 %103
}