; Function Attrs: nounwind uwtable
define internal range(i32 -2147483648, 1) i32 @process_command(ptr noundef readonly captures(none) %0, ptr noundef %1, ptr noundef %2, ptr readnone captures(none) %3, i32 %4, i32 %5) #1 {
  %7 = getelementptr inbounds nuw i8, ptr %0, i64 72
  %8 = load ptr, ptr %7, align 8, !tbaa !4
  %9 = tail call i32 @strcmp(ptr noundef nonnull dereferenceable(1) %1, ptr noundef nonnull dereferenceable(6) @.str.12) #9
  %.not = icmp eq i32 %9, 0
  br i1 %.not, label %25, label %sub_0

sub_0:                                            ; preds = %6
  %10 = load i8, ptr %1, align 1
  %.not50 = icmp eq i8 %10, 119
  br i1 %.not50, label %.tail, label %.tail.thread

.tail:                                            ; preds = %sub_0
  %11 = getelementptr inbounds nuw i8, ptr %1, i64 1
  %12 = load i8, ptr %11, align 1
  %13 = icmp eq i8 %12, 0
  br i1 %13, label %25, label %.thread

.tail.thread:                                     ; preds = %sub_0
  %14 = tail call i32 @strcmp(ptr noundef nonnull dereferenceable(1) %1, ptr noundef nonnull dereferenceable(6) @.str.14) #9
  %.not34 = icmp eq i32 %14, 0
  br i1 %.not34, label %25, label %sub_039

.thread:                                          ; preds = %.tail
  %15 = tail call i32 @strcmp(ptr noundef nonnull dereferenceable(1) %1, ptr noundef nonnull dereferenceable(6) @.str.14) #9
  %.not3455 = icmp eq i32 %15, 0
  br i1 %.not3455, label %25, label %.tail46.thread

sub_039:                                          ; preds = %.tail.thread
  switch i8 %10, label %.tail46.thread [
    i8 104, label %.tail38
    i8 120, label %.tail42
    i8 121, label %.tail46
  ]

.tail38:                                          ; preds = %sub_039
  %16 = getelementptr inbounds nuw i8, ptr %1, i64 1
  %17 = load i8, ptr %16, align 1
  %18 = icmp eq i8 %17, 0
  br i1 %18, label %25, label %.tail46.thread

.tail42:                                          ; preds = %sub_039
  %19 = getelementptr inbounds nuw i8, ptr %1, i64 1
  %20 = load i8, ptr %19, align 1
  %21 = icmp eq i8 %20, 0
  br i1 %21, label %25, label %.tail46.thread

.tail46:                                          ; preds = %sub_039
  %22 = getelementptr inbounds nuw i8, ptr %1, i64 1
  %23 = load i8, ptr %22, align 1
  %24 = icmp eq i8 %23, 0
  br i1 %24, label %25, label %.tail46.thread

25:                                               ; preds = %.thread, %.tail46, %.tail42, %.tail38, %.tail.thread, %.tail, %6
  %26 = getelementptr inbounds nuw i8, ptr %8, i64 8
  %27 = load i32, ptr %26, align 8, !tbaa !25
  %28 = getelementptr inbounds nuw i8, ptr %8, i64 12
  %29 = load i32, ptr %28, align 4, !tbaa !26
  %30 = getelementptr inbounds nuw i8, ptr %8, i64 16
  %31 = load i32, ptr %30, align 8, !tbaa !27
  %32 = getelementptr inbounds nuw i8, ptr %8, i64 20
  %33 = load i32, ptr %32, align 4, !tbaa !28
  %34 = getelementptr inbounds nuw i8, ptr %0, i64 56
  %35 = load ptr, ptr %34, align 8, !tbaa !29
  %36 = load ptr, ptr %35, align 8, !tbaa !30
  %37 = getelementptr inbounds nuw i8, ptr %0, i64 32
  %38 = load ptr, ptr %37, align 8, !tbaa !32
  %39 = load ptr, ptr %38, align 8, !tbaa !30
  %40 = tail call i32 @av_opt_set(ptr noundef %8, ptr noundef nonnull %1, ptr noundef %2, i32 noundef 0) #8
  %41 = tail call i32 @config_input(ptr noundef %39)
  %42 = icmp sgt i32 %41, -1
  br i1 %42, label %44, label %43

43:                                               ; preds = %25
  store i32 %27, ptr %26, align 8, !tbaa !25
  store i32 %29, ptr %28, align 4, !tbaa !26
  store i32 %31, ptr %30, align 8, !tbaa !27
  store i32 %33, ptr %32, align 4, !tbaa !28
  br label %.tail46.thread

44:                                               ; preds = %25
  %45 = load ptr, ptr %36, align 8, !tbaa !33
  %46 = getelementptr inbounds nuw i8, ptr %45, i64 72
  %47 = load ptr, ptr %46, align 8, !tbaa !4
  %48 = getelementptr inbounds nuw i8, ptr %36, i64 36
  %49 = load i32, ptr %48, align 4, !tbaa !41
  %50 = tail call ptr @av_pix_fmt_desc_get(i32 noundef %49) #8
  %51 = getelementptr inbounds nuw i8, ptr %50, i64 16
  %52 = load i64, ptr %51, align 8, !tbaa !42
  %53 = and i64 %52, 8
  %.not.i = icmp eq i64 %53, 0
  br i1 %.not.i, label %54, label %config_output.exit

54:                                               ; preds = %44
  %55 = getelementptr inbounds nuw i8, ptr %47, i64 16
  %56 = load i32, ptr %55, align 8, !tbaa !27
  %57 = getelementptr inbounds nuw i8, ptr %36, i64 40
  store i32 %56, ptr %57, align 8, !tbaa !45
  %58 = getelementptr inbounds nuw i8, ptr %47, i64 20
  %59 = load i32, ptr %58, align 4, !tbaa !28
  %60 = getelementptr inbounds nuw i8, ptr %36, i64 44
  store i32 %59, ptr %60, align 4, !tbaa !46
  br label %config_output.exit

config_output.exit:                               ; preds = %44, %54
  %61 = getelementptr inbounds nuw i8, ptr %36, i64 48
  %62 = getelementptr inbounds nuw i8, ptr %47, i64 24
  %63 = load i64, ptr %62, align 8
  store i64 %63, ptr %61, align 8
  br label %.tail46.thread

.tail46.thread:                                   ; preds = %sub_039, %.tail38, %.thread, %.tail42, %43, %config_output.exit, %.tail46
  %.1 = phi i32 [ -38, %.tail46 ], [ 0, %config_output.exit ], [ %41, %43 ], [ -38, %.tail42 ], [ -38, %.thread ], [ -38, %.tail38 ], [ -38, %sub_039 ]
  ret i32 %.1
}